; Function Attrs: mustprogress uwtable
define noundef double @_ZNK8QuantLib29YearOnYearInflationSwapHelper12impliedQuoteEv(ptr nocapture noundef nonnull readonly align 8 dereferenceable(280) %this) unnamed_addr #8 align 2 {
entry:
  %yyiis_ = getelementptr inbounds nuw i8, ptr %this, i64 248
  %0 = load ptr, ptr %yyiis_, align 8, !tbaa !150
  %cmp.not.i = icmp eq ptr %0, null
  br i1 %cmp.not.i, label %cond.false.i, label %_ZNK5boost10shared_ptrIN8QuantLib23YearOnYearInflationSwapEEptEv.exit, !prof !73

cond.false.i:                                     ; preds = %entry
  tail call void @_ZN5boost16assertion_failedEPKcS1_S1_l(ptr noundef nonnull @.str.14, ptr noundef nonnull @__PRETTY_FUNCTION__._ZNK5boost10shared_ptrIN8QuantLib23YearOnYearInflationSwapEEptEv, ptr noundef nonnull @.str.15, i64 noundef 784)
  %.pre.i = load ptr, ptr %yyiis_, align 8, !tbaa !150
  br label %_ZNK5boost10shared_ptrIN8QuantLib23YearOnYearInflationSwapEEptEv.exit

_ZNK5boost10shared_ptrIN8QuantLib23YearOnYearInflationSwapEEptEv.exit: ; preds = %entry, %cond.false.i
  %1 = phi ptr [ %0, %entry ], [ %.pre.i, %cond.false.i ]
  %vtable = load ptr, ptr %1, align 8, !tbaa !35
  %vfn = getelementptr inbounds i8, ptr %vtable, i64 72
  %2 = load ptr, ptr %vfn, align 8
  tail call void %2(ptr noundef nonnull align 8 dereferenceable(256) %1)
  %3 = load ptr, ptr %yyiis_, align 8, !tbaa !150
  %cmp.not.i1 = icmp eq ptr %3, null
  br i1 %cmp.not.i1, label %cond.false.i2, label %_ZNK5boost10shared_ptrIN8QuantLib23YearOnYearInflationSwapEEptEv.exit4, !prof !73

cond.false.i2:                                    ; preds = %_ZNK5boost10shared_ptrIN8QuantLib23YearOnYearInflationSwapEEptEv.exit
  tail call void @_ZN5boost16assertion_failedEPKcS1_S1_l(ptr noundef nonnull @.str.14, ptr noundef nonnull @__PRETTY_FUNCTION__._ZNK5boost10shared_ptrIN8QuantLib23YearOnYearInflationSwapEEptEv, ptr noundef nonnull @.str.15, i64 noundef 784)
  %.pre.i3 = load ptr, ptr %yyiis_, align 8, !tbaa !150
  br label %_ZNK5boost10shared_ptrIN8QuantLib23YearOnYearInflationSwapEEptEv.exit4

_ZNK5boost10shared_ptrIN8QuantLib23YearOnYearInflationSwapEEptEv.exit4: ; preds = %_ZNK5boost10shared_ptrIN8QuantLib23YearOnYearInflationSwapEEptEv.exit, %cond.false.i2
  %4 = phi ptr [ %3, %_ZNK5boost10shared_ptrIN8QuantLib23YearOnYearInflationSwapEEptEv.exit ], [ %.pre.i3, %cond.false.i2 ]
  %vtable4 = load ptr, ptr %4, align 8, !tbaa !35
  %vfn5 = getelementptr inbounds i8, ptr %vtable4, i64 104
  %5 = load ptr, ptr %vfn5, align 8
  %call6 = tail call noundef double %5(ptr noundef nonnull align 8 dereferenceable(656) %4)
  ret double %call6
}